; Function Attrs: nounwind uwtable
define internal fastcc i32 @converters_init(ptr noundef %0) unnamed_addr #2 {
  %2 = tail call ptr @PyModule_GetState(ptr noundef %0) #5
  %3 = tail call ptr @PyDict_New() #5
  %4 = getelementptr inbounds nuw i8, ptr %2, i64 80
  store ptr %3, ptr %4, align 8, !tbaa !33
  %5 = icmp eq ptr %3, null
  br i1 %5, label %8, label %6

6:                                                ; preds = %1
  %7 = tail call i32 @PyModule_AddObjectRef(ptr noundef %0, ptr noundef nonnull @.str.209, ptr noundef nonnull %3) #5
  br label %8

8:                                                ; preds = %1, %6
  %.0 = phi i32 [ %7, %6 ], [ -1, %1 ]
  ret i32 %.0
}